 0x000000000000000e (SONAME)             Library soname: [liblibrary.so]
_ZN10MiddlelineC1Eiiij T
_ZN10MiddlelineC1Ev W
_ZN10MiddlelineC2Eiiij T
_ZN10MiddlelineC2Ev W
_ZN10MiddlelineD1Ev W
_ZN10MiddlelineD2Ev W
_ZN10MiddlelineaSEOS_ W
_ZN10RacketRect14updateAndParseEPK6RacketP12SDL_Renderer T
_ZN10RacketRect14updatePositionEPK6Racket T
_ZN10RacketRectC1EPK6Racket T
_ZN10RacketRectC2EPK6Racket T
_ZN11SoundEffect10playEffectEs T
_ZN11SoundEffectC1ENSt7__cxx1112basic_stringIcSt11char_traitsIcESaIcEEEi T
_ZN11SoundEffectC2ENSt7__cxx1112basic_stringIcSt11char_traitsIcESaIcEEEi T
_ZN11SoundEffectD1Ev T
_ZN11SoundEffectD2Ev T
_ZN11Startscreen13updateTextureEP12SDL_Rendereri T
_ZN11StartscreenC1EiiiihhhhP12SDL_RendererPKcS3_ T
_ZN11StartscreenC2EiiiihhhhP12SDL_RendererPKcS3_ T
_ZN11StartscreenD1Ev T
_ZN11StartscreenD2Ev T
_ZN14ScoreboardRect13updateTextureEP12SDL_Renderer T
_ZN14ScoreboardRect16updateScoreboardEtP12SDL_Renderer T
_ZN14ScoreboardRect8setScoreEt T
_ZN14ScoreboardRectC1EiiiithhhhP12SDL_RendererP9_TTF_Font T
_ZN14ScoreboardRectC1EiiiithhhhP12SDL_RendererPKc T
_ZN14ScoreboardRectC2EiiiithhhhP12SDL_RendererP9_TTF_Font T
_ZN14ScoreboardRectC2EiiiithhhhP12SDL_RendererPKc T
_ZN14ScoreboardRectD1Ev T
_ZN14ScoreboardRectD2Ev T
_ZN15KeyboardHandler19fetchKeyboardStatesEv T
_ZN15KeyboardHandler20handleKeyboardStatesEPbP9GameStatej T
_ZN3App3runEv T
_ZN3App8setSpeedEj T
_ZN3App9getWindowEv T
_ZN3AppC1Ejj T
_ZN3AppC2Ejj T
_ZN3AppD1Ev T
_ZN3AppD2Ev T
_ZN4Ball8moveBallEj T
_ZN4Ball8setSpeedEii T
_ZN4BallC1Eii T
_ZN4BallC1Eiiii T
_ZN4BallC2Eii T
_ZN4BallC2Eiiii T
_ZN5Music9playMusicEs T
_ZN5MusicC1ENSt7__cxx1112basic_stringIcSt11char_traitsIcESaIcEEEi T
_ZN5MusicC2ENSt7__cxx1112basic_stringIcSt11char_traitsIcESaIcEEEi T
_ZN5MusicD1Ev T
_ZN5MusicD2Ev T
_ZN6Racket14checkCollisionEP4Ballb T
_ZN6Racket6moveUpEj T
_ZN6Racket8moveDownEji T
_ZN6Racket8moveLeftEjib T
_ZN6Racket9moveRightEjib T
_ZN6RacketC1Eii T
_ZN6RacketC2Eii T
_ZN8BallRect14updateAndParseEPK4BallP12SDL_Renderer T
_ZN8BallRect14updatePositionEPK4Ball T
_ZN8BallRectC1EPK4Ball T
_ZN8BallRectC2EPK4Ball T
_ZN8Renderer15drawStartscreenEv T
_ZN8Renderer4drawEPK9GameState T
_ZN8RendererC1EP10SDL_WindowPK9GameState T
_ZN8RendererC2EP10SDL_WindowPK9GameState T
_ZN8RendererD1Ev T
_ZN8RendererD2Ev T
_ZN9GameState13checkForPointEv T
_ZN9GameState14checkCollisionEiP11SoundEffect T
_ZN9GameState9resetBallEv T
_ZN9GameStateC1Eiiiiiiiittjj T
_ZN9GameStateC2Eiiiiiiiittjj T
_ZN9__gnu_cxx11char_traitsIcE2eqERKcS3_ W
_ZN9__gnu_cxx11char_traitsIcE6lengthEPKc W
_ZN9__gnu_cxx17__normal_iteratorIP8SDL_RectSt6vectorIS1_SaIS1_EEEC1ERKS2_ W
_ZN9__gnu_cxx17__normal_iteratorIP8SDL_RectSt6vectorIS1_SaIS1_EEEC2ERKS2_ W
_ZN9__gnu_cxx17__normal_iteratorIPK8SDL_RectSt6vectorIS1_SaIS1_EEEC1ERKS3_ W
_ZN9__gnu_cxx17__normal_iteratorIPK8SDL_RectSt6vectorIS1_SaIS1_EEEC2ERKS3_ W
_ZN9__gnu_cxx17__normal_iteratorIPK8SDL_RectSt6vectorIS1_SaIS1_EEEppEv W
_ZN9__gnu_cxxmiIP8SDL_RectSt6vectorIS1_SaIS1_EEEENS_17__normal_iteratorIT_T0_E15difference_typeERKS9_SC_ W
_ZN9__gnu_cxxneIPK8SDL_RectSt6vectorIS1_SaIS1_EEEEbRKNS_17__normal_iteratorIT_T0_EESC_ W
_ZNK10Middleline15parseMiddlelineEP12SDL_Renderer T
_ZNK10RacketRect15parseToRendererEP12SDL_Renderer T
_ZNK10RacketRect7getRectEv T
_ZNK4Ball7getHPosEv T
_ZNK4Ball7getVPosEv T
_ZNK4Ball8getWidthEv T
_ZNK4Ball9getHSpeedEv T
_ZNK4Ball9getHeightEv T
_ZNK4Ball9getVSpeedEv T
_ZNK6Racket14getVertcialPosEv T
_ZNK6Racket8getWidthEv T
_ZNK6Racket9getHeightEv T
_ZNK6Racket9getHorPosEv T
_ZNK8BallRect15parseToRendererEP12SDL_Renderer T
_ZNK9__gnu_cxx17__normal_iteratorIP8SDL_RectSt6vectorIS1_SaIS1_EEE4baseEv W
_ZNK9__gnu_cxx17__normal_iteratorIPK8SDL_RectSt6vectorIS1_SaIS1_EEE4baseEv W
_ZNK9__gnu_cxx17__normal_iteratorIPK8SDL_RectSt6vectorIS1_SaIS1_EEEdeEv W
_ZNKSt12_Vector_baseI8SDL_RectSaIS0_EE13get_allocatorEv W
_ZNKSt12_Vector_baseI8SDL_RectSaIS0_EE19_M_get_Tp_allocatorEv W
_ZNKSt6vectorI8SDL_RectSaIS0_EE12_M_check_lenEmPKc W
_ZNKSt6vectorI8SDL_RectSaIS0_EE3endEv W
_ZNKSt6vectorI8SDL_RectSaIS0_EE4sizeEv W
_ZNKSt6vectorI8SDL_RectSaIS0_EE5beginEv W
_ZNKSt6vectorI8SDL_RectSaIS0_EE8max_sizeEv W
_ZNSt11char_traitsIcE6lengthEPKc W
_ZNSt12_Destroy_auxILb1EE9__destroyIP8SDL_RectEEvT_S4_ W
_ZNSt12_Vector_baseI8SDL_RectSaIS0_EE11_M_allocateEm W
_ZNSt12_Vector_baseI8SDL_RectSaIS0_EE12_Vector_implC1ERKS1_ W
_ZNSt12_Vector_baseI8SDL_RectSaIS0_EE12_Vector_implC1Ev W
_ZNSt12_Vector_baseI8SDL_RectSaIS0_EE12_Vector_implC2ERKS1_ W
_ZNSt12_Vector_baseI8SDL_RectSaIS0_EE12_Vector_implC2Ev W
_ZNSt12_Vector_baseI8SDL_RectSaIS0_EE12_Vector_implD1Ev W
_ZNSt12_Vector_baseI8SDL_RectSaIS0_EE12_Vector_implD2Ev W
_ZNSt12_Vector_baseI8SDL_RectSaIS0_EE13_M_deallocateEPS0_m W
_ZNSt12_Vector_baseI8SDL_RectSaIS0_EE17_Vector_impl_data12_M_copy_dataERKS3_ W
_ZNSt12_Vector_baseI8SDL_RectSaIS0_EE17_Vector_impl_data12_M_swap_dataERS3_ W
_ZNSt12_Vector_baseI8SDL_RectSaIS0_EE17_Vector_impl_dataC1Ev W
_ZNSt12_Vector_baseI8SDL_RectSaIS0_EE17_Vector_impl_dataC2Ev W
_ZNSt12_Vector_baseI8SDL_RectSaIS0_EE19_M_get_Tp_allocatorEv W
_ZNSt12_Vector_baseI8SDL_RectSaIS0_EEC1ERKS1_ W
_ZNSt12_Vector_baseI8SDL_RectSaIS0_EEC1Ev W
_ZNSt12_Vector_baseI8SDL_RectSaIS0_EEC2ERKS1_ W
_ZNSt12_Vector_baseI8SDL_RectSaIS0_EEC2Ev W
_ZNSt12_Vector_baseI8SDL_RectSaIS0_EED1Ev W
_ZNSt12_Vector_baseI8SDL_RectSaIS0_EED2Ev W
_ZNSt15__new_allocatorI8SDL_RectE10deallocateEPS0_m W
_ZNSt15__new_allocatorI8SDL_RectE8allocateEmPKv W
_ZNSt15__new_allocatorI8SDL_RectED1Ev W
_ZNSt15__new_allocatorI8SDL_RectED2Ev W
_ZNSt15__new_allocatorIcED1Ev W
_ZNSt15__new_allocatorIcED2Ev W
_ZNSt6vectorI8SDL_RectSaIS0_EE11_S_max_sizeERKS1_ W
_ZNSt6vectorI8SDL_RectSaIS0_EE11_S_relocateEPS0_S3_S3_RS1_ W
_ZNSt6vectorI8SDL_RectSaIS0_EE14_M_move_assignEOS2_St17integral_constantIbLb1EE W
_ZNSt6vectorI8SDL_RectSaIS0_EE17_M_realloc_insertIJRKS0_EEEvN9__gnu_cxx17__normal_iteratorIPS0_S2_EEDpOT_ W
_ZNSt6vectorI8SDL_RectSaIS0_EE3endEv W
_ZNSt6vectorI8SDL_RectSaIS0_EE5beginEv W
_ZNSt6vectorI8SDL_RectSaIS0_EE9push_backERKS0_ W
_ZNSt6vectorI8SDL_RectSaIS0_EEC1ERKS1_ W
_ZNSt6vectorI8SDL_RectSaIS0_EEC1Ev W
_ZNSt6vectorI8SDL_RectSaIS0_EEC2ERKS1_ W
_ZNSt6vectorI8SDL_RectSaIS0_EEC2Ev W
_ZNSt6vectorI8SDL_RectSaIS0_EED1Ev W
_ZNSt6vectorI8SDL_RectSaIS0_EED2Ev W
_ZNSt6vectorI8SDL_RectSaIS0_EEaSEOS2_ W
_ZNSt7__cxx1112basic_stringIcSt11char_traitsIcESaIcEE12_Alloc_hiderD1Ev W
_ZNSt7__cxx1112basic_stringIcSt11char_traitsIcESaIcEE12_Alloc_hiderD2Ev W
_ZNSt7__cxx1112basic_stringIcSt11char_traitsIcESaIcEE12_M_constructIPKcEEvT_S8_St20forward_iterator_tag W
_ZNSt7__cxx1112basic_stringIcSt11char_traitsIcESaIcEEC1IS3_EEPKcRKS3_ W
_ZNSt7__cxx1112basic_stringIcSt11char_traitsIcESaIcEEC1IS3_EEmcRKS3_ W
_ZNSt7__cxx1112basic_stringIcSt11char_traitsIcESaIcEEC2IS3_EEPKcRKS3_ W
_ZNSt7__cxx1112basic_stringIcSt11char_traitsIcESaIcEEC2IS3_EEmcRKS3_ W
_ZNSt7__cxx119to_stringEi W
_ZNSt8__detail14__to_chars_lenIjEEjT_i W
_ZNSt8__detail18__to_chars_10_implIjEEvPcjT_ W
_ZSt12__niter_baseIP8SDL_RectET_S2_ W
_ZSt12__relocate_aIP8SDL_RectS1_SaIS0_EET0_T_S4_S3_RT1_ W
_ZSt14__relocate_a_1I8SDL_RectS0_ENSt9enable_ifIXsrSt24__is_bitwise_relocatableIT_vE5valueEPS3_E4typeES5_S5_S5_RSaIT0_E W
_ZSt23__is_constant_evaluatedv W
_ZSt3maxImERKT_S2_S2_ W
_ZSt3minImERKT_S2_S2_ W
_ZSt4moveIRNSt7__cxx1112basic_stringIcSt11char_traitsIcESaIcEEEEONSt16remove_referenceIT_E4typeEOS8_ W
_ZSt4moveIRSaI8SDL_RectEEONSt16remove_referenceIT_E4typeEOS4_ W
_ZSt4moveIRSt6vectorI8SDL_RectSaIS1_EEEONSt16remove_referenceIT_E4typeEOS6_ W
_ZSt7forwardIRK8SDL_RectEOT_RNSt16remove_referenceIS3_E4typeE W
_ZSt8_DestroyIP8SDL_RectEvT_S2_ W
_ZStplIcSt11char_traitsIcESaIcEENSt7__cxx1112basic_stringIT_T0_T1_EEOS8_PKS5_ W
_ZStplIcSt11char_traitsIcESaIcEENSt7__cxx1112basic_stringIT_T0_T1_EEPKS5_OS8_ W
_ZZNSt7__cxx1112basic_stringIcSt11char_traitsIcESaIcEE12_M_constructIPKcEEvT_S8_St20forward_iterator_tagEN6_GuardC1EPS4_ W
_ZZNSt7__cxx1112basic_stringIcSt11char_traitsIcESaIcEE12_M_constructIPKcEEvT_S8_St20forward_iterator_tagEN6_GuardC2EPS4_ W
_ZZNSt7__cxx1112basic_stringIcSt11char_traitsIcESaIcEE12_M_constructIPKcEEvT_S8_St20forward_iterator_tagEN6_GuardD1Ev W
_ZZNSt7__cxx1112basic_stringIcSt11char_traitsIcESaIcEE12_M_constructIPKcEEvT_S8_St20forward_iterator_tagEN6_GuardD2Ev W
_ZnwmPv W
